target datalayout = "e-m:e-p270:32:32-p271:32:32-p272:64:64-i64:64-i128:128-f80:128-n8:16:32:64-S128"
target triple = "x86_64-pc-linux-gnu"

@.str.1 = private unnamed_addr constant [8 x i8] c"proto.c\00", align 1
@.str.14 = private unnamed_addr constant [40 x i8] c"expected action 'N', 'O' or 'K', got %c\00", align 1
@__func__.logicalrep_read_update = private unnamed_addr constant [23 x i8] c"logicalrep_read_update\00", align 1
@.str.15 = private unnamed_addr constant [28 x i8] c"expected action 'N', got %c\00", align 1

; Function Attrs: nounwind uwtable
define dso_local i32 @logicalrep_read_update(ptr noundef %0, ptr noundef %1, ptr noundef %2, ptr noundef %3) #0 {
  %5 = alloca ptr, align 8
  %6 = alloca ptr, align 8
  %7 = alloca ptr, align 8
  %8 = alloca ptr, align 8
  %9 = alloca i8, align 1
  %10 = alloca i32, align 4
  store ptr %0, ptr %5, align 8
  store ptr %1, ptr %6, align 8
  store ptr %2, ptr %7, align 8
  store ptr %3, ptr %8, align 8
  call void @llvm.lifetime.start.p0(i64 1, ptr %9) #9
  call void @llvm.lifetime.start.p0(i64 4, ptr %10) #9
  %11 = load ptr, ptr %5, align 8
  %12 = call i32 @pq_getmsgint(ptr noundef %11, i32 noundef 4)
  store i32 %12, ptr %10, align 4
  %13 = load ptr, ptr %5, align 8
  %14 = call i32 @pq_getmsgbyte(ptr noundef %13)
  %15 = trunc i32 %14 to i8
  store i8 %15, ptr %9, align 1
  %16 = load i8, ptr %9, align 1
  %17 = sext i8 %16 to i32
  %18 = icmp ne i32 %17, 75
  br i1 %18, label %19, label %40

19:                                               ; preds = %4
  %20 = load i8, ptr %9, align 1
  %21 = sext i8 %20 to i32
  %22 = icmp ne i32 %21, 79
  br i1 %22, label %23, label %40

23:                                               ; preds = %19
  %24 = load i8, ptr %9, align 1
  %25 = sext i8 %24 to i32
  %26 = icmp ne i32 %25, 78
  br i1 %26, label %27, label %40

27:                                               ; preds = %23
  br label %28

28:                                               ; preds = %27
  br i1 true, label %29, label %31

29:                                               ; preds = %28
  %30 = call zeroext i1 @errstart_cold(i32 noundef 21, ptr noundef null) #8
  br i1 %30, label %33, label %37

31:                                               ; preds = %28
  %32 = call zeroext i1 @errstart(i32 noundef 21, ptr noundef null)
  br i1 %32, label %33, label %37

33:                                               ; preds = %31, %29
  %34 = load i8, ptr %9, align 1
  %35 = sext i8 %34 to i32
  %36 = call i32 (ptr, ...) @errmsg_internal(ptr noundef @.str.14, i32 noundef %35)
  call void @errfinish(ptr noundef @.str.1, i32 noundef 501, ptr noundef @__func__.logicalrep_read_update)
  br label %37

37:                                               ; preds = %33, %31, %29
  unreachable

38:                                               ; No predecessors!
  br label %39

39:                                               ; preds = %38
  br label %40

40:                                               ; preds = %39, %23, %19, %4
  %41 = load i8, ptr %9, align 1
  %42 = sext i8 %41 to i32
  %43 = icmp eq i32 %42, 75
  br i1 %43, label %48, label %44

44:                                               ; preds = %40
  %45 = load i8, ptr %9, align 1
  %46 = sext i8 %45 to i32
  %47 = icmp eq i32 %46, 79
  br i1 %47, label %48, label %55

48:                                               ; preds = %44, %40
  %49 = load ptr, ptr %5, align 8
  %50 = load ptr, ptr %7, align 8
  call void @logicalrep_read_tuple(ptr noundef %49, ptr noundef %50)
  %51 = load ptr, ptr %6, align 8
  store i8 1, ptr %51, align 1
  %52 = load ptr, ptr %5, align 8
  %53 = call i32 @pq_getmsgbyte(ptr noundef %52)
  %54 = trunc i32 %53 to i8
  store i8 %54, ptr %9, align 1
  br label %57

55:                                               ; preds = %44
  %56 = load ptr, ptr %6, align 8
  store i8 0, ptr %56, align 1
  br label %57

57:                                               ; preds = %55, %48
  %58 = load i8, ptr %9, align 1
  %59 = sext i8 %58 to i32
  %60 = icmp ne i32 %59, 78
  br i1 %60, label %61, label %74

61:                                               ; preds = %57
  br label %62

62:                                               ; preds = %61
  br i1 true, label %63, label %65

63:                                               ; preds = %62
  %64 = call zeroext i1 @errstart_cold(i32 noundef 21, ptr noundef null) #8
  br i1 %64, label %67, label %71

65:                                               ; preds = %62
  %66 = call zeroext i1 @errstart(i32 noundef 21, ptr noundef null)
  br i1 %66, label %67, label %71

67:                                               ; preds = %65, %63
  %68 = load i8, ptr %9, align 1
  %69 = sext i8 %68 to i32
  %70 = call i32 (ptr, ...) @errmsg_internal(ptr noundef @.str.15, i32 noundef %69)
  call void @errfinish(ptr noundef @.str.1, i32 noundef 517, ptr noundef @__func__.logicalrep_read_update)
  br label %71

71:                                               ; preds = %67, %65, %63
  unreachable

72:                                               ; No predecessors!
  br label %73

73:                                               ; preds = %72
  br label %74

74:                                               ; preds = %73, %57
  %75 = load ptr, ptr %5, align 8
  %76 = load ptr, ptr %8, align 8
  call void @logicalrep_read_tuple(ptr noundef %75, ptr noundef %76)
  %77 = load i32, ptr %10, align 4
  call void @llvm.lifetime.end.p0(i64 4, ptr %10) #9
  call void @llvm.lifetime.end.p0(i64 1, ptr %9) #9
  ret i32 %77
}