; Function Attrs: nounwind uwtable
define dso_local i32 @logicalrep_read_update(ptr noundef %0, ptr noundef writeonly captures(none) %1, ptr noundef captures(none) %2, ptr noundef captures(none) %3) local_unnamed_addr #0 {
  %5 = tail call i32 @pq_getmsgint(ptr noundef %0, i32 noundef 4) #8
  %6 = tail call i32 @pq_getmsgbyte(ptr noundef %0) #8
  %sext = shl i32 %6, 24
  %7 = and i32 %6, 251
  %or.cond = icmp ne i32 %7, 75
  %8 = icmp ne i32 %sext, 1308622848
  %or.cond5 = and i1 %or.cond, %8
  br i1 %or.cond5, label %9, label %13

9:                                                ; preds = %4
  %10 = ashr exact i32 %sext, 24
  %11 = tail call zeroext i1 @errstart_cold(i32 noundef 21, ptr noundef null) #9
  tail call void @llvm.assume(i1 %11)
  %12 = tail call i32 (ptr, ...) @errmsg_internal(ptr noundef nonnull @.str.14, i32 noundef %10) #8
  tail call void @errfinish(ptr noundef nonnull @.str.1, i32 noundef 501, ptr noundef nonnull @__func__.logicalrep_read_update) #8
  unreachable

13:                                               ; preds = %4
  %14 = and i32 %6, 75
  %or.cond8 = icmp eq i32 %14, 75
  br i1 %or.cond8, label %15, label %17

15:                                               ; preds = %13
  tail call fastcc void @logicalrep_read_tuple(ptr noundef %0, ptr noundef %2)
  store i8 1, ptr %1, align 1
  %16 = tail call i32 @pq_getmsgbyte(ptr noundef %0) #8
  br label %18

17:                                               ; preds = %13
  store i8 0, ptr %1, align 1
  br label %18

18:                                               ; preds = %17, %15
  %.0.in = phi i32 [ %16, %15 ], [ %6, %17 ]
  %sext27 = shl i32 %.0.in, 24
  %.not = icmp eq i32 %sext27, 1308622848
  br i1 %.not, label %23, label %19

19:                                               ; preds = %18
  %20 = ashr exact i32 %sext27, 24
  %21 = tail call zeroext i1 @errstart_cold(i32 noundef 21, ptr noundef null) #9
  tail call void @llvm.assume(i1 %21)
  %22 = tail call i32 (ptr, ...) @errmsg_internal(ptr noundef nonnull @.str.15, i32 noundef %20) #8
  tail call void @errfinish(ptr noundef nonnull @.str.1, i32 noundef 517, ptr noundef nonnull @__func__.logicalrep_read_update) #8
  unreachable

23:                                               ; preds = %18
  tail call fastcc void @logicalrep_read_tuple(ptr noundef %0, ptr noundef %3)
  ret i32 %5
}